; Function Attrs: mustprogress uwtable
define noalias noundef nonnull ptr @_ZN4lean14io_wrap_handleEP8_IO_FILE(ptr noundef %0) local_unnamed_addr #0 {
  %2 = load ptr, ptr @_ZN4leanL26g_io_handle_external_classE, align 8, !tbaa !3
  tail call void @lean_inc_heartbeat()
  %3 = tail call noalias ptr @mi_malloc_small(i64 noundef 24) #27
  %4 = icmp eq ptr %3, null
  br i1 %4, label %5, label %_ZL19lean_alloc_externalP19lean_external_classPv.exit

5:                                                ; preds = %1
  tail call void @lean_internal_panic_out_of_memory() #28
  unreachable

_ZL19lean_alloc_externalP19lean_external_classPv.exit: ; preds = %1
  %6 = getelementptr inbounds nuw i8, ptr %3, i64 4
  store i32 1, ptr %3, align 4, !tbaa !7
  store i32 -33554408, ptr %6, align 4
  %7 = getelementptr inbounds nuw i8, ptr %3, i64 8
  store ptr %2, ptr %7, align 8, !tbaa !37
  %8 = getelementptr inbounds nuw i8, ptr %3, i64 16
  store ptr %0, ptr %8, align 8, !tbaa !39
  ret ptr %3
}